
asm:     file format elf64-x86-64


Disassembly of section .text:

0000000000401000 <_start>:
  401000:	b8 03 00 00 00       	mov    $0x3,%eax
  401005:	bf 02 00 00 00       	mov    $0x2,%edi
  40100a:	0f 05                	syscall 
  40100c:	48 b8 dc 20 40 00 00 	movabs $0x4020dc,%rax
  401013:	00 00 00 
  401016:	50                   	push   %rax
  401017:	b9 15 00 00 00       	mov    $0x15,%ecx

000000000040101c <loop_j>:
  40101c:	48 bb c6 20 40 00 00 	movabs $0x4020c6,%rbx
  401023:	00 00 00 
  401026:	48 01 cb             	add    %rcx,%rbx
  401029:	8a 03                	mov    (%rbx),%al
  40102b:	48 8b 1c 24          	mov    (%rsp),%rbx
  40102f:	48 01 cb             	add    %rcx,%rbx
  401032:	30 03                	xor    %al,(%rbx)
  401034:	48 ff c9             	dec    %rcx
  401037:	48 83 f9 00          	cmp    $0x0,%rcx
  40103b:	7d df                	jge    40101c <loop_j>
  40103d:	b9 15 00 00 00       	mov    $0x15,%ecx

0000000000401042 <loop_i>:
  401042:	48 bb b0 20 40 00 00 	movabs $0x4020b0,%rbx
  401049:	00 00 00 
  40104c:	48 01 cb             	add    %rcx,%rbx
  40104f:	8a 03                	mov    (%rbx),%al
  401051:	48 8b 1c 24          	mov    (%rsp),%rbx
  401055:	48 01 cb             	add    %rcx,%rbx
  401058:	30 03                	xor    %al,(%rbx)
  40105a:	48 ff c9             	dec    %rcx
  40105d:	48 83 f9 00          	cmp    $0x0,%rcx
  401061:	7d df                	jge    401042 <loop_i>
  401063:	b9 15 00 00 00       	mov    $0x15,%ecx

0000000000401068 <loop_h>:
  401068:	48 bb 9a 20 40 00 00 	movabs $0x40209a,%rbx
  40106f:	00 00 00 
  401072:	48 01 cb             	add    %rcx,%rbx
  401075:	8a 03                	mov    (%rbx),%al
  401077:	48 8b 1c 24          	mov    (%rsp),%rbx
  40107b:	48 01 cb             	add    %rcx,%rbx
  40107e:	30 03                	xor    %al,(%rbx)
  401080:	48 ff c9             	dec    %rcx
  401083:	48 83 f9 00          	cmp    $0x0,%rcx
  401087:	7d df                	jge    401068 <loop_h>
  401089:	b9 15 00 00 00       	mov    $0x15,%ecx

000000000040108e <loop_g>:
  40108e:	48 bb 84 20 40 00 00 	movabs $0x402084,%rbx
  401095:	00 00 00 
  401098:	48 01 cb             	add    %rcx,%rbx
  40109b:	8a 03                	mov    (%rbx),%al
  40109d:	48 8b 1c 24          	mov    (%rsp),%rbx
  4010a1:	48 01 cb             	add    %rcx,%rbx
  4010a4:	30 03                	xor    %al,(%rbx)
  4010a6:	48 ff c9             	dec    %rcx
  4010a9:	48 83 f9 00          	cmp    $0x0,%rcx
  4010ad:	7d df                	jge    40108e <loop_g>
  4010af:	b9 15 00 00 00       	mov    $0x15,%ecx

00000000004010b4 <loop_f>:
  4010b4:	48 bb 6e 20 40 00 00 	movabs $0x40206e,%rbx
  4010bb:	00 00 00 
  4010be:	48 01 cb             	add    %rcx,%rbx
  4010c1:	8a 03                	mov    (%rbx),%al
  4010c3:	48 8b 1c 24          	mov    (%rsp),%rbx
  4010c7:	48 01 cb             	add    %rcx,%rbx
  4010ca:	30 03                	xor    %al,(%rbx)
  4010cc:	48 ff c9             	dec    %rcx
  4010cf:	48 83 f9 00          	cmp    $0x0,%rcx
  4010d3:	7d df                	jge    4010b4 <loop_f>
  4010d5:	b9 15 00 00 00       	mov    $0x15,%ecx

00000000004010da <loop_e>:
  4010da:	48 bb 58 20 40 00 00 	movabs $0x402058,%rbx
  4010e1:	00 00 00 
  4010e4:	48 01 cb             	add    %rcx,%rbx
  4010e7:	8a 03                	mov    (%rbx),%al
  4010e9:	48 8b 1c 24          	mov    (%rsp),%rbx
  4010ed:	48 01 cb             	add    %rcx,%rbx
  4010f0:	30 03                	xor    %al,(%rbx)
  4010f2:	48 ff c9             	dec    %rcx
  4010f5:	48 83 f9 00          	cmp    $0x0,%rcx
  4010f9:	7d df                	jge    4010da <loop_e>
  4010fb:	b9 15 00 00 00       	mov    $0x15,%ecx

0000000000401100 <loop_d>:
  401100:	48 bb 42 20 40 00 00 	movabs $0x402042,%rbx
  401107:	00 00 00 
  40110a:	48 01 cb             	add    %rcx,%rbx
  40110d:	8a 03                	mov    (%rbx),%al
  40110f:	48 8b 1c 24          	mov    (%rsp),%rbx
  401113:	48 01 cb             	add    %rcx,%rbx
  401116:	30 03                	xor    %al,(%rbx)
  401118:	48 ff c9             	dec    %rcx
  40111b:	48 83 f9 00          	cmp    $0x0,%rcx
  40111f:	7d df                	jge    401100 <loop_d>
  401121:	b9 15 00 00 00       	mov    $0x15,%ecx

0000000000401126 <loop_c>:
  401126:	48 bb 2c 20 40 00 00 	movabs $0x40202c,%rbx
  40112d:	00 00 00 
  401130:	48 01 cb             	add    %rcx,%rbx
  401133:	8a 03                	mov    (%rbx),%al
  401135:	48 8b 1c 24          	mov    (%rsp),%rbx
  401139:	48 01 cb             	add    %rcx,%rbx
  40113c:	30 03                	xor    %al,(%rbx)
  40113e:	48 ff c9             	dec    %rcx
  401141:	48 83 f9 00          	cmp    $0x0,%rcx
  401145:	7d df                	jge    401126 <loop_c>
  401147:	b9 15 00 00 00       	mov    $0x15,%ecx

000000000040114c <loop_b>:
  40114c:	48 bb 16 20 40 00 00 	movabs $0x402016,%rbx
  401153:	00 00 00 
  401156:	48 01 cb             	add    %rcx,%rbx
  401159:	8a 03                	mov    (%rbx),%al
  40115b:	48 8b 1c 24          	mov    (%rsp),%rbx
  40115f:	48 01 cb             	add    %rcx,%rbx
  401162:	30 03                	xor    %al,(%rbx)
  401164:	48 ff c9             	dec    %rcx
  401167:	48 83 f9 00          	cmp    $0x0,%rcx
  40116b:	7d df                	jge    40114c <loop_b>
  40116d:	b9 15 00 00 00       	mov    $0x15,%ecx

0000000000401172 <loop_a>:
  401172:	48 bb 00 20 40 00 00 	movabs $0x402000,%rbx
  401179:	00 00 00 
  40117c:	48 01 cb             	add    %rcx,%rbx
  40117f:	8a 03                	mov    (%rbx),%al
  401181:	48 8b 1c 24          	mov    (%rsp),%rbx
  401185:	48 01 cb             	add    %rcx,%rbx
  401188:	30 03                	xor    %al,(%rbx)
  40118a:	48 ff c9             	dec    %rcx
  40118d:	48 83 f9 00          	cmp    $0x0,%rcx
  401191:	7d df                	jge    401172 <loop_a>
  401193:	ba 15 00 00 00       	mov    $0x15,%edx
  401198:	48 8b 34 24          	mov    (%rsp),%rsi
  40119c:	b8 01 00 00 00       	mov    $0x1,%eax
  4011a1:	bf 02 00 00 00       	mov    $0x2,%edi
  4011a6:	0f 05                	syscall 
  4011a8:	b8 3c 00 00 00       	mov    $0x3c,%eax
  4011ad:	0f 05                	syscall 
