
login4:     file format elf32-i386


Disassembly of section .init:

0804834c <_init>:
 804834c:	53                   	push   %ebx
 804834d:	83 ec 08             	sub    $0x8,%esp
 8048350:	e8 cb 00 00 00       	call   8048420 <__x86.get_pc_thunk.bx>
 8048355:	81 c3 ab 1c 00 00    	add    $0x1cab,%ebx
 804835b:	8b 83 f8 ff ff ff    	mov    -0x8(%ebx),%eax
 8048361:	85 c0                	test   %eax,%eax
 8048363:	74 05                	je     804836a <_init+0x1e>
 8048365:	e8 76 00 00 00       	call   80483e0 <__gmon_start__@plt>
 804836a:	83 c4 08             	add    $0x8,%esp
 804836d:	5b                   	pop    %ebx
 804836e:	c3                   	ret    

Disassembly of section .plt:

08048370 <.plt>:
 8048370:	ff 35 04 a0 04 08    	pushl  0x804a004
 8048376:	ff 25 08 a0 04 08    	jmp    *0x804a008
 804837c:	00 00                	add    %al,(%eax)
	...

08048380 <setbuf@plt>:
 8048380:	ff 25 0c a0 04 08    	jmp    *0x804a00c
 8048386:	68 00 00 00 00       	push   $0x0
 804838b:	e9 e0 ff ff ff       	jmp    8048370 <.plt>

08048390 <printf@plt>:
 8048390:	ff 25 10 a0 04 08    	jmp    *0x804a010
 8048396:	68 08 00 00 00       	push   $0x8
 804839b:	e9 d0 ff ff ff       	jmp    8048370 <.plt>

080483a0 <gets@plt>:
 80483a0:	ff 25 14 a0 04 08    	jmp    *0x804a014
 80483a6:	68 10 00 00 00       	push   $0x10
 80483ab:	e9 c0 ff ff ff       	jmp    8048370 <.plt>

080483b0 <puts@plt>:
 80483b0:	ff 25 18 a0 04 08    	jmp    *0x804a018
 80483b6:	68 18 00 00 00       	push   $0x18
 80483bb:	e9 b0 ff ff ff       	jmp    8048370 <.plt>

080483c0 <__libc_start_main@plt>:
 80483c0:	ff 25 1c a0 04 08    	jmp    *0x804a01c
 80483c6:	68 20 00 00 00       	push   $0x20
 80483cb:	e9 a0 ff ff ff       	jmp    8048370 <.plt>

080483d0 <strncmp@plt>:
 80483d0:	ff 25 20 a0 04 08    	jmp    *0x804a020
 80483d6:	68 28 00 00 00       	push   $0x28
 80483db:	e9 90 ff ff ff       	jmp    8048370 <.plt>

Disassembly of section .plt.got:

080483e0 <__gmon_start__@plt>:
 80483e0:	ff 25 f8 9f 04 08    	jmp    *0x8049ff8
 80483e6:	66 90                	xchg   %ax,%ax

Disassembly of section .text:

080483f0 <_start>:
 80483f0:	31 ed                	xor    %ebp,%ebp
 80483f2:	5e                   	pop    %esi
 80483f3:	89 e1                	mov    %esp,%ecx
 80483f5:	83 e4 f0             	and    $0xfffffff0,%esp
 80483f8:	50                   	push   %eax
 80483f9:	54                   	push   %esp
 80483fa:	52                   	push   %edx
 80483fb:	68 b0 86 04 08       	push   $0x80486b0
 8048400:	68 50 86 04 08       	push   $0x8048650
 8048405:	51                   	push   %ecx
 8048406:	56                   	push   %esi
 8048407:	68 a5 85 04 08       	push   $0x80485a5
 804840c:	e8 af ff ff ff       	call   80483c0 <__libc_start_main@plt>
 8048411:	f4                   	hlt    
 8048412:	66 90                	xchg   %ax,%ax
 8048414:	66 90                	xchg   %ax,%ax
 8048416:	66 90                	xchg   %ax,%ax
 8048418:	66 90                	xchg   %ax,%ax
 804841a:	66 90                	xchg   %ax,%ax
 804841c:	66 90                	xchg   %ax,%ax
 804841e:	66 90                	xchg   %ax,%ax

08048420 <__x86.get_pc_thunk.bx>:
 8048420:	8b 1c 24             	mov    (%esp),%ebx
 8048423:	c3                   	ret    
 8048424:	66 90                	xchg   %ax,%ax
 8048426:	66 90                	xchg   %ax,%ax
 8048428:	66 90                	xchg   %ax,%ax
 804842a:	66 90                	xchg   %ax,%ax
 804842c:	66 90                	xchg   %ax,%ax
 804842e:	66 90                	xchg   %ax,%ax

08048430 <deregister_tm_clones>:
 8048430:	b8 2f a0 04 08       	mov    $0x804a02f,%eax
 8048435:	2d 2c a0 04 08       	sub    $0x804a02c,%eax
 804843a:	83 f8 06             	cmp    $0x6,%eax
 804843d:	76 1a                	jbe    8048459 <deregister_tm_clones+0x29>
 804843f:	b8 00 00 00 00       	mov    $0x0,%eax
 8048444:	85 c0                	test   %eax,%eax
 8048446:	74 11                	je     8048459 <deregister_tm_clones+0x29>
 8048448:	55                   	push   %ebp
 8048449:	89 e5                	mov    %esp,%ebp
 804844b:	83 ec 14             	sub    $0x14,%esp
 804844e:	68 2c a0 04 08       	push   $0x804a02c
 8048453:	ff d0                	call   *%eax
 8048455:	83 c4 10             	add    $0x10,%esp
 8048458:	c9                   	leave  
 8048459:	f3 c3                	repz ret 
 804845b:	90                   	nop
 804845c:	8d 74 26 00          	lea    0x0(%esi,%eiz,1),%esi

08048460 <register_tm_clones>:
 8048460:	b8 2c a0 04 08       	mov    $0x804a02c,%eax
 8048465:	2d 2c a0 04 08       	sub    $0x804a02c,%eax
 804846a:	c1 f8 02             	sar    $0x2,%eax
 804846d:	89 c2                	mov    %eax,%edx
 804846f:	c1 ea 1f             	shr    $0x1f,%edx
 8048472:	01 d0                	add    %edx,%eax
 8048474:	d1 f8                	sar    %eax
 8048476:	74 1b                	je     8048493 <register_tm_clones+0x33>
 8048478:	ba 00 00 00 00       	mov    $0x0,%edx
 804847d:	85 d2                	test   %edx,%edx
 804847f:	74 12                	je     8048493 <register_tm_clones+0x33>
 8048481:	55                   	push   %ebp
 8048482:	89 e5                	mov    %esp,%ebp
 8048484:	83 ec 10             	sub    $0x10,%esp
 8048487:	50                   	push   %eax
 8048488:	68 2c a0 04 08       	push   $0x804a02c
 804848d:	ff d2                	call   *%edx
 804848f:	83 c4 10             	add    $0x10,%esp
 8048492:	c9                   	leave  
 8048493:	f3 c3                	repz ret 
 8048495:	8d 74 26 00          	lea    0x0(%esi,%eiz,1),%esi
 8048499:	8d bc 27 00 00 00 00 	lea    0x0(%edi,%eiz,1),%edi

080484a0 <__do_global_dtors_aux>:
 80484a0:	80 3d 40 a0 04 08 00 	cmpb   $0x0,0x804a040
 80484a7:	75 13                	jne    80484bc <__do_global_dtors_aux+0x1c>
 80484a9:	55                   	push   %ebp
 80484aa:	89 e5                	mov    %esp,%ebp
 80484ac:	83 ec 08             	sub    $0x8,%esp
 80484af:	e8 7c ff ff ff       	call   8048430 <deregister_tm_clones>
 80484b4:	c6 05 40 a0 04 08 01 	movb   $0x1,0x804a040
 80484bb:	c9                   	leave  
 80484bc:	f3 c3                	repz ret 
 80484be:	66 90                	xchg   %ax,%ax

080484c0 <frame_dummy>:
 80484c0:	b8 0c 9f 04 08       	mov    $0x8049f0c,%eax
 80484c5:	8b 10                	mov    (%eax),%edx
 80484c7:	85 d2                	test   %edx,%edx
 80484c9:	75 05                	jne    80484d0 <frame_dummy+0x10>
 80484cb:	eb 93                	jmp    8048460 <register_tm_clones>
 80484cd:	8d 76 00             	lea    0x0(%esi),%esi
 80484d0:	ba 00 00 00 00       	mov    $0x0,%edx
 80484d5:	85 d2                	test   %edx,%edx
 80484d7:	74 f2                	je     80484cb <frame_dummy+0xb>
 80484d9:	55                   	push   %ebp
 80484da:	89 e5                	mov    %esp,%ebp
 80484dc:	83 ec 14             	sub    $0x14,%esp
 80484df:	50                   	push   %eax
 80484e0:	ff d2                	call   *%edx
 80484e2:	83 c4 10             	add    $0x10,%esp
 80484e5:	c9                   	leave  
 80484e6:	e9 75 ff ff ff       	jmp    8048460 <register_tm_clones>

080484eb <login>:
 80484eb:	55                   	push   %ebp
 80484ec:	89 e5                	mov    %esp,%ebp
 80484ee:	53                   	push   %ebx
 80484ef:	81 ec 84 00 00 00    	sub    $0x84,%esp
 80484f5:	e8 26 ff ff ff       	call   8048420 <__x86.get_pc_thunk.bx>
 80484fa:	81 c3 06 1b 00 00    	add    $0x1b06,%ebx
 8048500:	83 ec 0c             	sub    $0xc,%esp
 8048503:	8d 83 d0 e6 ff ff    	lea    -0x1930(%ebx),%eax
 8048509:	50                   	push   %eax
 804850a:	e8 a1 fe ff ff       	call   80483b0 <puts@plt>
 804850f:	83 c4 10             	add    $0x10,%esp
 8048512:	83 ec 0c             	sub    $0xc,%esp
 8048515:	8d 85 78 ff ff ff    	lea    -0x88(%ebp),%eax
 804851b:	50                   	push   %eax
 804851c:	e8 7f fe ff ff       	call   80483a0 <gets@plt>
 8048521:	83 c4 10             	add    $0x10,%esp
 8048524:	eb 48                	jmp    804856e <login+0x83>
 8048526:	83 ec 0c             	sub    $0xc,%esp
 8048529:	8d 83 e7 e6 ff ff    	lea    -0x1919(%ebx),%eax
 804852f:	50                   	push   %eax
 8048530:	e8 5b fe ff ff       	call   8048390 <printf@plt>
 8048535:	83 c4 10             	add    $0x10,%esp
 8048538:	83 ec 0c             	sub    $0xc,%esp
 804853b:	8d 85 78 ff ff ff    	lea    -0x88(%ebp),%eax
 8048541:	50                   	push   %eax
 8048542:	e8 49 fe ff ff       	call   8048390 <printf@plt>
 8048547:	83 c4 10             	add    $0x10,%esp
 804854a:	83 ec 0c             	sub    $0xc,%esp
 804854d:	8d 83 00 e7 ff ff    	lea    -0x1900(%ebx),%eax
 8048553:	50                   	push   %eax
 8048554:	e8 57 fe ff ff       	call   80483b0 <puts@plt>
 8048559:	83 c4 10             	add    $0x10,%esp
 804855c:	83 ec 0c             	sub    $0xc,%esp
 804855f:	8d 85 78 ff ff ff    	lea    -0x88(%ebp),%eax
 8048565:	50                   	push   %eax
 8048566:	e8 35 fe ff ff       	call   80483a0 <gets@plt>
 804856b:	83 c4 10             	add    $0x10,%esp
 804856e:	83 ec 04             	sub    $0x4,%esp
 8048571:	6a 04                	push   $0x4
 8048573:	8d 83 24 e7 ff ff    	lea    -0x18dc(%ebx),%eax
 8048579:	50                   	push   %eax
 804857a:	8d 85 78 ff ff ff    	lea    -0x88(%ebp),%eax
 8048580:	50                   	push   %eax
 8048581:	e8 4a fe ff ff       	call   80483d0 <strncmp@plt>
 8048586:	83 c4 10             	add    $0x10,%esp
 8048589:	85 c0                	test   %eax,%eax
 804858b:	75 99                	jne    8048526 <login+0x3b>
 804858d:	83 ec 0c             	sub    $0xc,%esp
 8048590:	8d 83 29 e7 ff ff    	lea    -0x18d7(%ebx),%eax
 8048596:	50                   	push   %eax
 8048597:	e8 f4 fd ff ff       	call   8048390 <printf@plt>
 804859c:	83 c4 10             	add    $0x10,%esp
 804859f:	90                   	nop
 80485a0:	8b 5d fc             	mov    -0x4(%ebp),%ebx
 80485a3:	c9                   	leave  
 80485a4:	c3                   	ret    

080485a5 <main>:
 80485a5:	8d 4c 24 04          	lea    0x4(%esp),%ecx
 80485a9:	83 e4 f0             	and    $0xfffffff0,%esp
 80485ac:	ff 71 fc             	pushl  -0x4(%ecx)
 80485af:	55                   	push   %ebp
 80485b0:	89 e5                	mov    %esp,%ebp
 80485b2:	53                   	push   %ebx
 80485b3:	51                   	push   %ecx
 80485b4:	e8 67 fe ff ff       	call   8048420 <__x86.get_pc_thunk.bx>
 80485b9:	81 c3 47 1a 00 00    	add    $0x1a47,%ebx
 80485bf:	8b 83 fc ff ff ff    	mov    -0x4(%ebx),%eax
 80485c5:	8b 00                	mov    (%eax),%eax
 80485c7:	83 ec 08             	sub    $0x8,%esp
 80485ca:	6a 00                	push   $0x0
 80485cc:	50                   	push   %eax
 80485cd:	e8 ae fd ff ff       	call   8048380 <setbuf@plt>
 80485d2:	83 c4 10             	add    $0x10,%esp
 80485d5:	83 ec 0c             	sub    $0xc,%esp
 80485d8:	8d 83 38 e7 ff ff    	lea    -0x18c8(%ebx),%eax
 80485de:	50                   	push   %eax
 80485df:	e8 cc fd ff ff       	call   80483b0 <puts@plt>
 80485e4:	83 c4 10             	add    $0x10,%esp
 80485e7:	83 ec 0c             	sub    $0xc,%esp
 80485ea:	c7 c0 60 a0 04 08    	mov    $0x804a060,%eax
 80485f0:	50                   	push   %eax
 80485f1:	e8 aa fd ff ff       	call   80483a0 <gets@plt>
 80485f6:	83 c4 10             	add    $0x10,%esp
 80485f9:	83 ec 0c             	sub    $0xc,%esp
 80485fc:	8d 83 4e e7 ff ff    	lea    -0x18b2(%ebx),%eax
 8048602:	50                   	push   %eax
 8048603:	e8 88 fd ff ff       	call   8048390 <printf@plt>
 8048608:	83 c4 10             	add    $0x10,%esp
 804860b:	83 ec 0c             	sub    $0xc,%esp
 804860e:	c7 c0 60 a0 04 08    	mov    $0x804a060,%eax
 8048614:	50                   	push   %eax
 8048615:	e8 76 fd ff ff       	call   8048390 <printf@plt>
 804861a:	83 c4 10             	add    $0x10,%esp
 804861d:	83 ec 0c             	sub    $0xc,%esp
 8048620:	8d 83 52 e7 ff ff    	lea    -0x18ae(%ebx),%eax
 8048626:	50                   	push   %eax
 8048627:	e8 84 fd ff ff       	call   80483b0 <puts@plt>
 804862c:	83 c4 10             	add    $0x10,%esp
 804862f:	e8 b7 fe ff ff       	call   80484eb <login>
 8048634:	b8 00 00 00 00       	mov    $0x0,%eax
 8048639:	8d 65 f8             	lea    -0x8(%ebp),%esp
 804863c:	59                   	pop    %ecx
 804863d:	5b                   	pop    %ebx
 804863e:	5d                   	pop    %ebp
 804863f:	8d 61 fc             	lea    -0x4(%ecx),%esp
 8048642:	c3                   	ret    
 8048643:	66 90                	xchg   %ax,%ax
 8048645:	66 90                	xchg   %ax,%ax
 8048647:	66 90                	xchg   %ax,%ax
 8048649:	66 90                	xchg   %ax,%ax
 804864b:	66 90                	xchg   %ax,%ax
 804864d:	66 90                	xchg   %ax,%ax
 804864f:	90                   	nop

08048650 <__libc_csu_init>:
 8048650:	55                   	push   %ebp
 8048651:	57                   	push   %edi
 8048652:	56                   	push   %esi
 8048653:	53                   	push   %ebx
 8048654:	e8 c7 fd ff ff       	call   8048420 <__x86.get_pc_thunk.bx>
 8048659:	81 c3 a7 19 00 00    	add    $0x19a7,%ebx
 804865f:	83 ec 0c             	sub    $0xc,%esp
 8048662:	8b 6c 24 20          	mov    0x20(%esp),%ebp
 8048666:	8d b3 08 ff ff ff    	lea    -0xf8(%ebx),%esi
 804866c:	e8 db fc ff ff       	call   804834c <_init>
 8048671:	8d 83 04 ff ff ff    	lea    -0xfc(%ebx),%eax
 8048677:	29 c6                	sub    %eax,%esi
 8048679:	c1 fe 02             	sar    $0x2,%esi
 804867c:	85 f6                	test   %esi,%esi
 804867e:	74 25                	je     80486a5 <__libc_csu_init+0x55>
 8048680:	31 ff                	xor    %edi,%edi
 8048682:	8d b6 00 00 00 00    	lea    0x0(%esi),%esi
 8048688:	83 ec 04             	sub    $0x4,%esp
 804868b:	ff 74 24 2c          	pushl  0x2c(%esp)
 804868f:	ff 74 24 2c          	pushl  0x2c(%esp)
 8048693:	55                   	push   %ebp
 8048694:	ff 94 bb 04 ff ff ff 	call   *-0xfc(%ebx,%edi,4)
 804869b:	83 c7 01             	add    $0x1,%edi
 804869e:	83 c4 10             	add    $0x10,%esp
 80486a1:	39 fe                	cmp    %edi,%esi
 80486a3:	75 e3                	jne    8048688 <__libc_csu_init+0x38>
 80486a5:	83 c4 0c             	add    $0xc,%esp
 80486a8:	5b                   	pop    %ebx
 80486a9:	5e                   	pop    %esi
 80486aa:	5f                   	pop    %edi
 80486ab:	5d                   	pop    %ebp
 80486ac:	c3                   	ret    
 80486ad:	8d 76 00             	lea    0x0(%esi),%esi

080486b0 <__libc_csu_fini>:
 80486b0:	f3 c3                	repz ret 

Disassembly of section .fini:

080486b4 <_fini>:
 80486b4:	53                   	push   %ebx
 80486b5:	83 ec 08             	sub    $0x8,%esp
 80486b8:	e8 63 fd ff ff       	call   8048420 <__x86.get_pc_thunk.bx>
 80486bd:	81 c3 43 19 00 00    	add    $0x1943,%ebx
 80486c3:	83 c4 08             	add    $0x8,%esp
 80486c6:	5b                   	pop    %ebx
 80486c7:	c3                   	ret    
